target datalayout = "e-m:e-p270:32:32-p271:32:32-p272:64:64-i64:64-i128:128-f80:128-n8:16:32:64-S128"
target triple = "x86_64-pc-linux-gnu"

@optarg = external global ptr, align 8
@.str.61 = private unnamed_addr constant [17 x i8] c"log_parser_stats\00", align 1
@.str.62 = private unnamed_addr constant [18 x i8] c"log_planner_stats\00", align 1
@.str.63 = private unnamed_addr constant [19 x i8] c"log_executor_stats\00", align 1

; Function Attrs: nounwind uwtable
define dso_local ptr @get_stats_option_name(ptr noundef %0) #0 {
  %2 = alloca ptr, align 8
  %3 = alloca ptr, align 8
  store ptr %0, ptr %3, align 8
  %4 = load ptr, ptr %3, align 8
  %5 = getelementptr inbounds i8, ptr %4, i64 0
  %6 = load i8, ptr %5, align 1
  %7 = sext i8 %6 to i32
  switch i32 %7, label %25 [
    i32 112, label %8
    i32 101, label %24
  ]

8:                                                ; preds = %1
  %9 = load ptr, ptr @optarg, align 8
  %10 = getelementptr inbounds i8, ptr %9, i64 1
  %11 = load i8, ptr %10, align 1
  %12 = sext i8 %11 to i32
  %13 = icmp eq i32 %12, 97
  br i1 %13, label %14, label %15

14:                                               ; preds = %8
  store ptr @.str.61, ptr %2, align 8
  br label %26

15:                                               ; preds = %8
  %16 = load ptr, ptr @optarg, align 8
  %17 = getelementptr inbounds i8, ptr %16, i64 1
  %18 = load i8, ptr %17, align 1
  %19 = sext i8 %18 to i32
  %20 = icmp eq i32 %19, 108
  br i1 %20, label %21, label %22

21:                                               ; preds = %15
  store ptr @.str.62, ptr %2, align 8
  br label %26

22:                                               ; preds = %15
  br label %23

23:                                               ; preds = %22
  br label %25

24:                                               ; preds = %1
  store ptr @.str.63, ptr %2, align 8
  br label %26

25:                                               ; preds = %1, %23
  store ptr null, ptr %2, align 8
  br label %26

26:                                               ; preds = %25, %24, %21, %14
  %27 = load ptr, ptr %2, align 8
  ret ptr %27
}