; Function Attrs: mustprogress nofree norecurse nosync nounwind willreturn memory(read, inaccessiblemem: none) uwtable
define dso_local ptr @get_stats_option_name(ptr noundef readonly captures(none) %0) local_unnamed_addr #11 {
  %2 = load i8, ptr %0, align 1
  switch i8 %2, label %7 [
    i8 112, label %3
    i8 101, label %8
  ]

3:                                                ; preds = %1
  %4 = load ptr, ptr @optarg, align 8
  %5 = getelementptr inbounds nuw i8, ptr %4, i64 1
  %6 = load i8, ptr %5, align 1
  %switch.selectcmp = icmp eq i8 %6, 108
  %switch.select = select i1 %switch.selectcmp, ptr @.str.62, ptr null
  %switch.selectcmp3 = icmp eq i8 %6, 97
  %switch.select4 = select i1 %switch.selectcmp3, ptr @.str.61, ptr %switch.select
  br label %8

7:                                                ; preds = %1
  br label %8

8:                                                ; preds = %3, %1, %7
  %.0 = phi ptr [ null, %7 ], [ @.str.63, %1 ], [ %switch.select4, %3 ]
  ret ptr %.0
}